target datalayout = "e-m:e-p270:32:32-p271:32:32-p272:64:64-i64:64-i128:128-f80:128-n8:16:32:64-S128"
target triple = "x86_64-pc-linux-gnu"

%struct.H5G_loc_t = type { ptr, ptr }
%struct.H5L_trav_gnbi_t = type { i32, i32, i64, i64, ptr, i64 }

@.str = private unnamed_addr constant [100 x i8] c"generated/home/dtcxzyw/WorkSpace/Projects/compilers/llvm-opt-benchmark/bench/hdf5/hdf5/src/H5Lint.c\00", align 1
@H5E_LINK_g = external global i64, align 8
@H5E_NOTFOUND_g = external global i64, align 8
@.str.51 = private unnamed_addr constant [20 x i8] c"group doesn't exist\00", align 1
@.str.52 = private unnamed_addr constant [15 x i8] c"link not found\00", align 1
@__func__.H5L__get_name_by_idx_cb = private unnamed_addr constant [24 x i8] c"H5L__get_name_by_idx_cb\00", align 1

; Function Attrs: nounwind uwtable
define internal i32 @H5L__get_name_by_idx_cb(ptr noundef %0, ptr noundef %1, ptr noundef %2, ptr noundef %3, ptr noundef %4, ptr noundef %5) #0 {
  %7 = alloca ptr, align 8
  %8 = alloca ptr, align 8
  %9 = alloca ptr, align 8
  %10 = alloca ptr, align 8
  %11 = alloca ptr, align 8
  %12 = alloca ptr, align 8
  %13 = alloca ptr, align 8
  %14 = alloca i32, align 4
  %15 = alloca i8, align 1
  store ptr %0, ptr %7, align 8
  store ptr %1, ptr %8, align 8
  store ptr %2, ptr %9, align 8
  store ptr %3, ptr %10, align 8
  store ptr %4, ptr %11, align 8
  store ptr %5, ptr %12, align 8
  %16 = load ptr, ptr %11, align 8
  store ptr %16, ptr %13, align 8
  store i32 0, ptr %14, align 4
  store i8 0, ptr %15, align 1
  %17 = load ptr, ptr %10, align 8
  %18 = icmp eq ptr %17, null
  br i1 %18, label %19, label %34

19:                                               ; preds = %6
  br label %20

20:                                               ; preds = %19
  br label %21

21:                                               ; preds = %20
  br label %22

22:                                               ; preds = %21
  %23 = load i64, ptr @H5E_LINK_g, align 8
  %24 = load i64, ptr @H5E_NOTFOUND_g, align 8
  %25 = call i32 (ptr, ptr, i32, i64, i64, ptr, ...) @H5E_printf_stack(ptr noundef @.str, ptr noundef @__func__.H5L__get_name_by_idx_cb, i32 noundef 1929, i64 noundef %23, i64 noundef %24, ptr noundef @.str.51)
  br label %26

26:                                               ; preds = %22
  store i8 1, ptr %15, align 1
  %27 = load i8, ptr %15, align 1
  %28 = trunc i8 %27 to i1
  %29 = zext i1 %28 to i8
  store i8 %29, ptr %15, align 1
  br label %30

30:                                               ; preds = %26
  br label %31

31:                                               ; preds = %30
  store i32 -1, ptr %14, align 4
  br label %73

32:                                               ; No predecessors!
  br label %33

33:                                               ; preds = %32
  br label %34

34:                                               ; preds = %33, %6
  %35 = load ptr, ptr %10, align 8
  %36 = getelementptr inbounds %struct.H5G_loc_t, ptr %35, i32 0, i32 0
  %37 = load ptr, ptr %36, align 8
  %38 = load ptr, ptr %13, align 8
  %39 = getelementptr inbounds %struct.H5L_trav_gnbi_t, ptr %38, i32 0, i32 0
  %40 = load i32, ptr %39, align 8
  %41 = load ptr, ptr %13, align 8
  %42 = getelementptr inbounds %struct.H5L_trav_gnbi_t, ptr %41, i32 0, i32 1
  %43 = load i32, ptr %42, align 4
  %44 = load ptr, ptr %13, align 8
  %45 = getelementptr inbounds %struct.H5L_trav_gnbi_t, ptr %44, i32 0, i32 2
  %46 = load i64, ptr %45, align 8
  %47 = load ptr, ptr %13, align 8
  %48 = getelementptr inbounds %struct.H5L_trav_gnbi_t, ptr %47, i32 0, i32 4
  %49 = load ptr, ptr %48, align 8
  %50 = load ptr, ptr %13, align 8
  %51 = getelementptr inbounds %struct.H5L_trav_gnbi_t, ptr %50, i32 0, i32 3
  %52 = load i64, ptr %51, align 8
  %53 = load ptr, ptr %13, align 8
  %54 = getelementptr inbounds %struct.H5L_trav_gnbi_t, ptr %53, i32 0, i32 5
  %55 = call i32 @H5G_obj_get_name_by_idx(ptr noundef %37, i32 noundef %40, i32 noundef %43, i64 noundef %46, ptr noundef %49, i64 noundef %52, ptr noundef %54)
  %56 = icmp slt i32 %55, 0
  br i1 %56, label %57, label %72

57:                                               ; preds = %34
  br label %58

58:                                               ; preds = %57
  br label %59

59:                                               ; preds = %58
  br label %60

60:                                               ; preds = %59
  %61 = load i64, ptr @H5E_LINK_g, align 8
  %62 = load i64, ptr @H5E_NOTFOUND_g, align 8
  %63 = call i32 (ptr, ptr, i32, i64, i64, ptr, ...) @H5E_printf_stack(ptr noundef @.str, ptr noundef @__func__.H5L__get_name_by_idx_cb, i32 noundef 1934, i64 noundef %61, i64 noundef %62, ptr noundef @.str.52)
  br label %64

64:                                               ; preds = %60
  store i8 1, ptr %15, align 1
  %65 = load i8, ptr %15, align 1
  %66 = trunc i8 %65 to i1
  %67 = zext i1 %66 to i8
  store i8 %67, ptr %15, align 1
  br label %68

68:                                               ; preds = %64
  br label %69

69:                                               ; preds = %68
  store i32 -1, ptr %14, align 4
  br label %73

70:                                               ; No predecessors!
  br label %71

71:                                               ; preds = %70
  br label %72

72:                                               ; preds = %71, %34
  br label %73

73:                                               ; preds = %72, %69, %31
  %74 = load ptr, ptr %12, align 8
  store i32 0, ptr %74, align 4
  %75 = load i32, ptr %14, align 4
  ret i32 %75
}