; Function Attrs: nounwind uwtable
define internal range(i32 -1, 1) i32 @H5L__get_name_by_idx_cb(ptr nocapture readnone %0, ptr nocapture readnone %1, ptr nocapture readnone %2, ptr noundef readonly %3, ptr noundef %4, ptr nocapture noundef writeonly %5) #0 {
  %7 = icmp eq ptr %3, null
  br i1 %7, label %8, label %12

8:                                                ; preds = %6
  %9 = load i64, ptr @H5E_LINK_g, align 8
  %10 = load i64, ptr @H5E_NOTFOUND_g, align 8
  %11 = tail call i32 (ptr, ptr, i32, i64, i64, ptr, ...) @H5E_printf_stack(ptr noundef nonnull @.str, ptr noundef nonnull @__func__.H5L__get_name_by_idx_cb, i32 noundef 1929, i64 noundef %9, i64 noundef %10, ptr noundef nonnull @.str.51) #10
  br label %30

12:                                               ; preds = %6
  %13 = load ptr, ptr %3, align 8
  %14 = load i32, ptr %4, align 8
  %15 = getelementptr inbounds i8, ptr %4, i64 4
  %16 = load i32, ptr %15, align 4
  %17 = getelementptr inbounds i8, ptr %4, i64 8
  %18 = load i64, ptr %17, align 8
  %19 = getelementptr inbounds i8, ptr %4, i64 24
  %20 = load ptr, ptr %19, align 8
  %21 = getelementptr inbounds i8, ptr %4, i64 16
  %22 = load i64, ptr %21, align 8
  %23 = getelementptr inbounds i8, ptr %4, i64 32
  %24 = tail call i32 @H5G_obj_get_name_by_idx(ptr noundef %13, i32 noundef %14, i32 noundef %16, i64 noundef %18, ptr noundef %20, i64 noundef %22, ptr noundef nonnull %23) #10
  %25 = icmp slt i32 %24, 0
  br i1 %25, label %26, label %30

26:                                               ; preds = %12
  %27 = load i64, ptr @H5E_LINK_g, align 8
  %28 = load i64, ptr @H5E_NOTFOUND_g, align 8
  %29 = tail call i32 (ptr, ptr, i32, i64, i64, ptr, ...) @H5E_printf_stack(ptr noundef nonnull @.str, ptr noundef nonnull @__func__.H5L__get_name_by_idx_cb, i32 noundef 1934, i64 noundef %27, i64 noundef %28, ptr noundef nonnull @.str.52) #10
  br label %30

30:                                               ; preds = %12, %26, %8
  %.0 = phi i32 [ -1, %8 ], [ -1, %26 ], [ 0, %12 ]
  store i32 0, ptr %5, align 4
  ret i32 %.0
}